target datalayout = "e-m:e-p270:32:32-p271:32:32-p272:64:64-i64:64-i128:128-f80:128-n8:16:32:64-S128"
target triple = "x86_64-pc-linux-gnu"

%struct.G726Tables = type { ptr, ptr, ptr, ptr }
%struct.AVCodecContext = type { ptr, i32, i32, ptr, i32, i32, ptr, ptr, ptr, i64, i32, i32, ptr, i32, %struct.AVRational, %struct.AVRational, %struct.AVRational, i32, i32, i32, i32, i32, %struct.AVRational, i32, i32, i32, i32, i32, i32, i32, i32, i32, i32, i32, ptr, ptr, i32, float, float, float, float, float, float, float, float, float, i32, i32, i32, i32, i32, i32, i32, i32, i32, i32, i32, i32, ptr, ptr, ptr, i32, i32, i32, i32, i32, i32, i32, i32, i32, i32, %struct.AVChannelLayout, i32, i32, i32, i32, i32, i32, i32, i32, ptr, i32, i32, i32, float, float, i32, i32, i32, i32, i32, ptr, i64, i64, float, float, i32, i32, ptr, ptr, i32, i32, i32, i32, i32, ptr, ptr, ptr, ptr, i32, i32, [8 x i64], i32, i32, i32, i32, i32, i32, i32, ptr, ptr, i32, i32, i32, i32, i32, i32, i32, i32, i32, i32, ptr, ptr, i32, i32, ptr, ptr, ptr, ptr, i32, i32, i64, i32, i32, i64, ptr, i64, ptr, i32, ptr, i32 }
%struct.AVRational = type { i32, i32 }
%struct.AVChannelLayout = type { i32, i32, %union.anon.1, ptr }
%union.anon.1 = type { i64 }
%struct.G726Context = type { ptr, %struct.G726Tables, [2 x %struct.Float11], [6 x %struct.Float11], [2 x i32], [6 x i32], [2 x i32], i32, i32, i32, i32, i32, i32, i32, i32, i32, i32, i32 }
%struct.Float11 = type { i8, i8, i8 }
%struct.AVFrame = type { [8 x ptr], [8 x i32], ptr, i32, i32, i32, i32, i32, %struct.AVRational, i64, i64, %struct.AVRational, i32, ptr, i32, i32, [8 x ptr], ptr, i32, ptr, i32, i32, i32, i32, i32, i32, i32, i64, ptr, i32, ptr, ptr, i64, i64, i64, i64, ptr, %struct.AVChannelLayout, i64 }
%struct.AVPacket = type { ptr, i64, i64, ptr, i32, i32, i32, ptr, i32, i64, i64, ptr, ptr, %struct.AVRational }
%struct.GetBitContext = type { ptr, ptr, i32, i32, i32 }

@.str.21 = private unnamed_addr constant [40 x i8] c"Frame invalidly split, missing parser?\0A\00", align 1

; Function Attrs: inlinehint nounwind uwtable
define internal i32 @get_bits_count(ptr noundef %0) #7 {
  %2 = alloca ptr, align 8
  store ptr %0, ptr %2, align 8, !tbaa !114
  %3 = load ptr, ptr %2, align 8, !tbaa !114
  %4 = getelementptr inbounds nuw %struct.GetBitContext, ptr %3, i32 0, i32 2
  %5 = load i32, ptr %4, align 8, !tbaa !121
  ret i32 %5
}

; Function Attrs: alwaysinline nounwind willreturn memory(none) uwtable
define internal i32 @av_bswap32(i32 noundef %0) #5 {
  %2 = alloca i32, align 4
  store i32 %0, ptr %2, align 4, !tbaa !46
  %3 = load i32, ptr %2, align 4, !tbaa !46
  %4 = shl i32 %3, 8
  %5 = and i32 %4, 65280
  %6 = load i32, ptr %2, align 4, !tbaa !46
  %7 = lshr i32 %6, 8
  %8 = and i32 %7, 255
  %9 = or i32 %5, %8
  %10 = shl i32 %9, 16
  %11 = load i32, ptr %2, align 4, !tbaa !46
  %12 = lshr i32 %11, 16
  %13 = shl i32 %12, 8
  %14 = and i32 %13, 65280
  %15 = load i32, ptr %2, align 4, !tbaa !46
  %16 = lshr i32 %15, 16
  %17 = lshr i32 %16, 8
  %18 = and i32 %17, 255
  %19 = or i32 %14, %18
  %20 = or i32 %10, %19
  ret i32 %20
}

; Function Attrs: inlinehint nounwind willreturn memory(none) uwtable
define internal i32 @zero_extend(i32 noundef %0, i32 noundef %1) #10 {
  %3 = alloca i32, align 4
  %4 = alloca i32, align 4
  store i32 %0, ptr %3, align 4, !tbaa !46
  store i32 %1, ptr %4, align 4, !tbaa !46
  %5 = load i32, ptr %3, align 4, !tbaa !46
  %6 = load i32, ptr %4, align 4, !tbaa !46
  %7 = zext i32 %6 to i64
  %8 = sub i64 32, %7
  %9 = trunc i64 %8 to i32
  %10 = shl i32 %5, %9
  %11 = load i32, ptr %4, align 4, !tbaa !46
  %12 = zext i32 %11 to i64
  %13 = sub i64 32, %12
  %14 = trunc i64 %13 to i32
  %15 = lshr i32 %10, %14
  ret i32 %15
}

; Function Attrs: inlinehint nounwind uwtable
define internal i32 @get_bits_left(ptr noundef %0) #7 {
  %2 = alloca ptr, align 8
  store ptr %0, ptr %2, align 8, !tbaa !114
  %3 = load ptr, ptr %2, align 8, !tbaa !114
  %4 = getelementptr inbounds nuw %struct.GetBitContext, ptr %3, i32 0, i32 3
  %5 = load i32, ptr %4, align 4, !tbaa !118
  %6 = load ptr, ptr %2, align 8, !tbaa !114
  %7 = call i32 @get_bits_count(ptr noundef %6)
  %8 = sub nsw i32 %5, %7
  ret i32 %8
}

; Function Attrs: inlinehint nounwind uwtable
define internal i32 @get_bits(ptr noundef %0, i32 noundef %1) #7 {
  %3 = alloca ptr, align 8
  %4 = alloca i32, align 4
  %5 = alloca i32, align 4
  %6 = alloca i32, align 4
  %7 = alloca i32, align 4
  %8 = alloca i32, align 4
  store ptr %0, ptr %3, align 8, !tbaa !114
  store i32 %1, ptr %4, align 4, !tbaa !46
  call void @llvm.lifetime.start.p0(i64 4, ptr %5) #11
  call void @llvm.lifetime.start.p0(i64 4, ptr %6) #11
  %9 = load ptr, ptr %3, align 8, !tbaa !114
  %10 = getelementptr inbounds nuw %struct.GetBitContext, ptr %9, i32 0, i32 2
  %11 = load i32, ptr %10, align 8, !tbaa !121
  store i32 %11, ptr %6, align 4, !tbaa !46
  call void @llvm.lifetime.start.p0(i64 4, ptr %7) #11
  call void @llvm.lifetime.start.p0(i64 4, ptr %8) #11
  %12 = load ptr, ptr %3, align 8, !tbaa !114
  %13 = getelementptr inbounds nuw %struct.GetBitContext, ptr %12, i32 0, i32 4
  %14 = load i32, ptr %13, align 8, !tbaa !119
  store i32 %14, ptr %8, align 4, !tbaa !46
  %15 = load ptr, ptr %3, align 8, !tbaa !114
  %16 = getelementptr inbounds nuw %struct.GetBitContext, ptr %15, i32 0, i32 0
  %17 = load ptr, ptr %16, align 8, !tbaa !116
  %18 = load i32, ptr %6, align 4, !tbaa !46
  %19 = lshr i32 %18, 3
  %20 = zext i32 %19 to i64
  %21 = getelementptr inbounds nuw i8, ptr %17, i64 %20
  %22 = load i32, ptr %21, align 1, !tbaa !69
  %23 = call i32 @av_bswap32(i32 noundef %22) #13
  %24 = load i32, ptr %6, align 4, !tbaa !46
  %25 = and i32 %24, 7
  %26 = shl i32 %23, %25
  %27 = lshr i32 %26, 0
  store i32 %27, ptr %7, align 4, !tbaa !46
  %28 = load i32, ptr %7, align 4, !tbaa !46
  %29 = load i32, ptr %4, align 4, !tbaa !46
  %30 = sub nsw i32 32, %29
  %31 = lshr i32 %28, %30
  store i32 %31, ptr %5, align 4, !tbaa !46
  %32 = load i32, ptr %8, align 4, !tbaa !46
  %33 = load i32, ptr %6, align 4, !tbaa !46
  %34 = load i32, ptr %4, align 4, !tbaa !46
  %35 = add i32 %33, %34
  %36 = icmp ugt i32 %32, %35
  br i1 %36, label %37, label %41

37:                                               ; preds = %2
  %38 = load i32, ptr %6, align 4, !tbaa !46
  %39 = load i32, ptr %4, align 4, !tbaa !46
  %40 = add i32 %38, %39
  br label %43

41:                                               ; preds = %2
  %42 = load i32, ptr %8, align 4, !tbaa !46
  br label %43

43:                                               ; preds = %41, %37
  %44 = phi i32 [ %40, %37 ], [ %42, %41 ]
  store i32 %44, ptr %6, align 4, !tbaa !46
  %45 = load i32, ptr %6, align 4, !tbaa !46
  %46 = load ptr, ptr %3, align 8, !tbaa !114
  %47 = getelementptr inbounds nuw %struct.GetBitContext, ptr %46, i32 0, i32 2
  store i32 %45, ptr %47, align 8, !tbaa !121
  %48 = load i32, ptr %5, align 4, !tbaa !46
  call void @llvm.lifetime.end.p0(i64 4, ptr %8) #11
  call void @llvm.lifetime.end.p0(i64 4, ptr %7) #11
  call void @llvm.lifetime.end.p0(i64 4, ptr %6) #11
  call void @llvm.lifetime.end.p0(i64 4, ptr %5) #11
  ret i32 %48
}

; Function Attrs: inlinehint nounwind uwtable
define internal i32 @get_bits_le(ptr noundef %0, i32 noundef %1) #7 {
  %3 = alloca ptr, align 8
  %4 = alloca i32, align 4
  %5 = alloca i32, align 4
  %6 = alloca i32, align 4
  %7 = alloca i32, align 4
  %8 = alloca i32, align 4
  store ptr %0, ptr %3, align 8, !tbaa !114
  store i32 %1, ptr %4, align 4, !tbaa !46
  call void @llvm.lifetime.start.p0(i64 4, ptr %5) #11
  call void @llvm.lifetime.start.p0(i64 4, ptr %6) #11
  %9 = load ptr, ptr %3, align 8, !tbaa !114
  %10 = getelementptr inbounds nuw %struct.GetBitContext, ptr %9, i32 0, i32 2
  %11 = load i32, ptr %10, align 8, !tbaa !121
  store i32 %11, ptr %6, align 4, !tbaa !46
  call void @llvm.lifetime.start.p0(i64 4, ptr %7) #11
  call void @llvm.lifetime.start.p0(i64 4, ptr %8) #11
  %12 = load ptr, ptr %3, align 8, !tbaa !114
  %13 = getelementptr inbounds nuw %struct.GetBitContext, ptr %12, i32 0, i32 4
  %14 = load i32, ptr %13, align 8, !tbaa !119
  store i32 %14, ptr %8, align 4, !tbaa !46
  %15 = load ptr, ptr %3, align 8, !tbaa !114
  %16 = getelementptr inbounds nuw %struct.GetBitContext, ptr %15, i32 0, i32 0
  %17 = load ptr, ptr %16, align 8, !tbaa !116
  %18 = load i32, ptr %6, align 4, !tbaa !46
  %19 = lshr i32 %18, 3
  %20 = zext i32 %19 to i64
  %21 = getelementptr inbounds nuw i8, ptr %17, i64 %20
  %22 = load i32, ptr %21, align 1, !tbaa !69
  %23 = load i32, ptr %6, align 4, !tbaa !46
  %24 = and i32 %23, 7
  %25 = lshr i32 %22, %24
  store i32 %25, ptr %7, align 4, !tbaa !46
  %26 = load i32, ptr %7, align 4, !tbaa !46
  %27 = load i32, ptr %4, align 4, !tbaa !46
  %28 = call i32 @zero_extend(i32 noundef %26, i32 noundef %27) #13
  store i32 %28, ptr %5, align 4, !tbaa !46
  %29 = load i32, ptr %8, align 4, !tbaa !46
  %30 = load i32, ptr %6, align 4, !tbaa !46
  %31 = load i32, ptr %4, align 4, !tbaa !46
  %32 = add i32 %30, %31
  %33 = icmp ugt i32 %29, %32
  br i1 %33, label %34, label %38

34:                                               ; preds = %2
  %35 = load i32, ptr %6, align 4, !tbaa !46
  %36 = load i32, ptr %4, align 4, !tbaa !46
  %37 = add i32 %35, %36
  br label %40

38:                                               ; preds = %2
  %39 = load i32, ptr %8, align 4, !tbaa !46
  br label %40

40:                                               ; preds = %38, %34
  %41 = phi i32 [ %37, %34 ], [ %39, %38 ]
  store i32 %41, ptr %6, align 4, !tbaa !46
  %42 = load i32, ptr %6, align 4, !tbaa !46
  %43 = load ptr, ptr %3, align 8, !tbaa !114
  %44 = getelementptr inbounds nuw %struct.GetBitContext, ptr %43, i32 0, i32 2
  store i32 %42, ptr %44, align 8, !tbaa !121
  %45 = load i32, ptr %5, align 4, !tbaa !46
  call void @llvm.lifetime.end.p0(i64 4, ptr %8) #11
  call void @llvm.lifetime.end.p0(i64 4, ptr %7) #11
  call void @llvm.lifetime.end.p0(i64 4, ptr %6) #11
  call void @llvm.lifetime.end.p0(i64 4, ptr %5) #11
  ret i32 %45
}

; Function Attrs: inlinehint nounwind uwtable
define internal i32 @init_get_bits(ptr noundef %0, ptr noundef %1, i32 noundef %2) #7 {
  %4 = alloca ptr, align 8
  %5 = alloca ptr, align 8
  %6 = alloca i32, align 4
  %7 = alloca i32, align 4
  %8 = alloca i32, align 4
  store ptr %0, ptr %4, align 8, !tbaa !114
  store ptr %1, ptr %5, align 8, !tbaa !53
  store i32 %2, ptr %6, align 4, !tbaa !46
  call void @llvm.lifetime.start.p0(i64 4, ptr %7) #11
  call void @llvm.lifetime.start.p0(i64 4, ptr %8) #11
  store i32 0, ptr %8, align 4, !tbaa !46
  %9 = load i32, ptr %6, align 4, !tbaa !46
  %10 = icmp sge i32 %9, 2147483135
  br i1 %10, label %17, label %11

11:                                               ; preds = %3
  %12 = load i32, ptr %6, align 4, !tbaa !46
  %13 = icmp slt i32 %12, 0
  br i1 %13, label %17, label %14

14:                                               ; preds = %11
  %15 = load ptr, ptr %5, align 8, !tbaa !53
  %16 = icmp ne ptr %15, null
  br i1 %16, label %18, label %17

17:                                               ; preds = %14, %11, %3
  store i32 0, ptr %6, align 4, !tbaa !46
  store ptr null, ptr %5, align 8, !tbaa !53
  store i32 -1094995529, ptr %8, align 4, !tbaa !46
  br label %18

18:                                               ; preds = %17, %14
  %19 = load i32, ptr %6, align 4, !tbaa !46
  %20 = add nsw i32 %19, 7
  %21 = ashr i32 %20, 3
  store i32 %21, ptr %7, align 4, !tbaa !46
  %22 = load ptr, ptr %5, align 8, !tbaa !53
  %23 = load ptr, ptr %4, align 8, !tbaa !114
  %24 = getelementptr inbounds nuw %struct.GetBitContext, ptr %23, i32 0, i32 0
  store ptr %22, ptr %24, align 8, !tbaa !116
  %25 = load i32, ptr %6, align 4, !tbaa !46
  %26 = load ptr, ptr %4, align 8, !tbaa !114
  %27 = getelementptr inbounds nuw %struct.GetBitContext, ptr %26, i32 0, i32 3
  store i32 %25, ptr %27, align 4, !tbaa !118
  %28 = load i32, ptr %6, align 4, !tbaa !46
  %29 = add nsw i32 %28, 8
  %30 = load ptr, ptr %4, align 8, !tbaa !114
  %31 = getelementptr inbounds nuw %struct.GetBitContext, ptr %30, i32 0, i32 4
  store i32 %29, ptr %31, align 8, !tbaa !119
  %32 = load ptr, ptr %5, align 8, !tbaa !53
  %33 = load i32, ptr %7, align 4, !tbaa !46
  %34 = sext i32 %33 to i64
  %35 = getelementptr inbounds i8, ptr %32, i64 %34
  %36 = load ptr, ptr %4, align 8, !tbaa !114
  %37 = getelementptr inbounds nuw %struct.GetBitContext, ptr %36, i32 0, i32 1
  store ptr %35, ptr %37, align 8, !tbaa !120
  %38 = load ptr, ptr %4, align 8, !tbaa !114
  %39 = getelementptr inbounds nuw %struct.GetBitContext, ptr %38, i32 0, i32 2
  store i32 0, ptr %39, align 8, !tbaa !121
  %40 = load i32, ptr %8, align 4, !tbaa !46
  call void @llvm.lifetime.end.p0(i64 4, ptr %8) #11
  call void @llvm.lifetime.end.p0(i64 4, ptr %7) #11
  ret i32 %40
}

; Function Attrs: nounwind uwtable
define internal i32 @g726_decode_frame(ptr noundef %0, ptr noundef %1, ptr noundef %2, ptr noundef %3) #1 {
  %5 = alloca i32, align 4
  %6 = alloca ptr, align 8
  %7 = alloca ptr, align 8
  %8 = alloca ptr, align 8
  %9 = alloca ptr, align 8
  %10 = alloca ptr, align 8
  %11 = alloca i32, align 4
  %12 = alloca ptr, align 8
  %13 = alloca ptr, align 8
  %14 = alloca %struct.GetBitContext, align 8
  %15 = alloca i32, align 4
  %16 = alloca i32, align 4
  %17 = alloca i32, align 4
  store ptr %0, ptr %6, align 8, !tbaa !4
  store ptr %1, ptr %7, align 8, !tbaa !50
  store ptr %2, ptr %8, align 8, !tbaa !52
  store ptr %3, ptr %9, align 8, !tbaa !48
  call void @llvm.lifetime.start.p0(i64 8, ptr %10) #11
  %18 = load ptr, ptr %9, align 8, !tbaa !48
  %19 = getelementptr inbounds nuw %struct.AVPacket, ptr %18, i32 0, i32 3
  %20 = load ptr, ptr %19, align 8, !tbaa !60
  store ptr %20, ptr %10, align 8, !tbaa !53
  call void @llvm.lifetime.start.p0(i64 4, ptr %11) #11
  %21 = load ptr, ptr %9, align 8, !tbaa !48
  %22 = getelementptr inbounds nuw %struct.AVPacket, ptr %21, i32 0, i32 4
  %23 = load i32, ptr %22, align 8, !tbaa !62
  store i32 %23, ptr %11, align 4, !tbaa !46
  call void @llvm.lifetime.start.p0(i64 8, ptr %12) #11
  %24 = load ptr, ptr %6, align 8, !tbaa !4
  %25 = getelementptr inbounds nuw %struct.AVCodecContext, ptr %24, i32 0, i32 6
  %26 = load ptr, ptr %25, align 8, !tbaa !9
  store ptr %26, ptr %12, align 8, !tbaa !29
  call void @llvm.lifetime.start.p0(i64 8, ptr %13) #11
  call void @llvm.lifetime.start.p0(i64 32, ptr %14) #11
  call void @llvm.lifetime.start.p0(i64 4, ptr %15) #11
  call void @llvm.lifetime.start.p0(i64 4, ptr %16) #11
  %27 = load i32, ptr %11, align 4, !tbaa !46
  %28 = mul nsw i32 %27, 8
  %29 = load ptr, ptr %12, align 8, !tbaa !29
  %30 = getelementptr inbounds nuw %struct.G726Context, ptr %29, i32 0, i32 16
  %31 = load i32, ptr %30, align 4, !tbaa !44
  %32 = sdiv i32 %28, %31
  store i32 %32, ptr %15, align 4, !tbaa !46
  %33 = load i32, ptr %15, align 4, !tbaa !46
  %34 = load ptr, ptr %7, align 8, !tbaa !50
  %35 = getelementptr inbounds nuw %struct.AVFrame, ptr %34, i32 0, i32 5
  store i32 %33, ptr %35, align 8, !tbaa !55
  %36 = load ptr, ptr %6, align 8, !tbaa !4
  %37 = load ptr, ptr %7, align 8, !tbaa !50
  %38 = call i32 @ff_get_buffer(ptr noundef %36, ptr noundef %37, i32 noundef 0)
  store i32 %38, ptr %16, align 4, !tbaa !46
  %39 = icmp slt i32 %38, 0
  br i1 %39, label %40, label %42

40:                                               ; preds = %4
  %41 = load i32, ptr %16, align 4, !tbaa !46
  store i32 %41, ptr %5, align 4
  store i32 1, ptr %17, align 4
  br label %84

42:                                               ; preds = %4
  %43 = load ptr, ptr %7, align 8, !tbaa !50
  %44 = getelementptr inbounds nuw %struct.AVFrame, ptr %43, i32 0, i32 0
  %45 = getelementptr inbounds [8 x ptr], ptr %44, i64 0, i64 0
  %46 = load ptr, ptr %45, align 8, !tbaa !53
  store ptr %46, ptr %13, align 8, !tbaa !54
  %47 = load ptr, ptr %10, align 8, !tbaa !53
  %48 = load i32, ptr %11, align 4, !tbaa !46
  %49 = mul nsw i32 %48, 8
  %50 = call i32 @init_get_bits(ptr noundef %14, ptr noundef %47, i32 noundef %49)
  br label %51

51:                                               ; preds = %71, %42
  %52 = load i32, ptr %15, align 4, !tbaa !46
  %53 = add nsw i32 %52, -1
  store i32 %53, ptr %15, align 4, !tbaa !46
  %54 = icmp ne i32 %52, 0
  br i1 %54, label %55, label %76

55:                                               ; preds = %51
  %56 = load ptr, ptr %12, align 8, !tbaa !29
  %57 = load ptr, ptr %12, align 8, !tbaa !29
  %58 = getelementptr inbounds nuw %struct.G726Context, ptr %57, i32 0, i32 17
  %59 = load i32, ptr %58, align 8, !tbaa !37
  %60 = icmp ne i32 %59, 0
  br i1 %60, label %61, label %66

61:                                               ; preds = %55
  %62 = load ptr, ptr %12, align 8, !tbaa !29
  %63 = getelementptr inbounds nuw %struct.G726Context, ptr %62, i32 0, i32 16
  %64 = load i32, ptr %63, align 4, !tbaa !44
  %65 = call i32 @get_bits_le(ptr noundef %14, i32 noundef %64)
  br label %71

66:                                               ; preds = %55
  %67 = load ptr, ptr %12, align 8, !tbaa !29
  %68 = getelementptr inbounds nuw %struct.G726Context, ptr %67, i32 0, i32 16
  %69 = load i32, ptr %68, align 4, !tbaa !44
  %70 = call i32 @get_bits(ptr noundef %14, i32 noundef %69)
  br label %71

71:                                               ; preds = %66, %61
  %72 = phi i32 [ %65, %61 ], [ %70, %66 ]
  %73 = call signext i16 @g726_decode(ptr noundef %56, i32 noundef %72)
  %74 = load ptr, ptr %13, align 8, !tbaa !54
  %75 = getelementptr inbounds nuw i16, ptr %74, i32 1
  store ptr %75, ptr %13, align 8, !tbaa !54
  store i16 %73, ptr %74, align 2, !tbaa !63
  br label %51, !llvm.loop !74

76:                                               ; preds = %51
  %77 = call i32 @get_bits_left(ptr noundef %14)
  %78 = icmp sgt i32 %77, 0
  br i1 %78, label %79, label %81

79:                                               ; preds = %76
  %80 = load ptr, ptr %6, align 8, !tbaa !4
  call void (ptr, i32, ptr, ...) @av_log(ptr noundef %80, i32 noundef 16, ptr noundef @.str.21)
  br label %81

81:                                               ; preds = %79, %76
  %82 = load ptr, ptr %8, align 8, !tbaa !52
  store i32 1, ptr %82, align 4, !tbaa !46
  %83 = load i32, ptr %11, align 4, !tbaa !46
  store i32 %83, ptr %5, align 4
  store i32 1, ptr %17, align 4
  br label %84

84:                                               ; preds = %81, %40
  call void @llvm.lifetime.end.p0(i64 4, ptr %16) #11
  call void @llvm.lifetime.end.p0(i64 4, ptr %15) #11
  call void @llvm.lifetime.end.p0(i64 32, ptr %14) #11
  call void @llvm.lifetime.end.p0(i64 8, ptr %13) #11
  call void @llvm.lifetime.end.p0(i64 8, ptr %12) #11
  call void @llvm.lifetime.end.p0(i64 4, ptr %11) #11
  call void @llvm.lifetime.end.p0(i64 8, ptr %10) #11
  %85 = load i32, ptr %5, align 4
  ret i32 %85
}