; Function Attrs: nounwind uwtable
define internal i32 @g726_decode_frame(ptr noundef %0, ptr noundef initializes((112, 116)) %1, ptr noundef writeonly captures(none) %2, ptr noundef readonly captures(none) %3) #1 {
  %5 = getelementptr inbounds nuw i8, ptr %3, i64 24
  %6 = load ptr, ptr %5, align 8, !tbaa !50
  %7 = getelementptr inbounds nuw i8, ptr %3, i64 32
  %8 = load i32, ptr %7, align 8, !tbaa !52
  %9 = getelementptr inbounds nuw i8, ptr %0, i64 32
  %10 = load ptr, ptr %9, align 8, !tbaa !4
  %11 = shl nsw i32 %8, 3
  %12 = getelementptr inbounds nuw i8, ptr %10, i64 140
  %13 = load i32, ptr %12, align 4, !tbaa !40
  %14 = sdiv i32 %11, %13
  %15 = getelementptr inbounds nuw i8, ptr %1, i64 112
  store i32 %14, ptr %15, align 8, !tbaa !45
  %16 = tail call i32 @ff_get_buffer(ptr noundef %0, ptr noundef %1, i32 noundef 0) #14
  %17 = icmp slt i32 %16, 0
  br i1 %17, label %52, label %18

18:                                               ; preds = %4
  %or.cond.i = icmp ult i32 %11, 2147483135
  %19 = icmp ne ptr %6, null
  %or.cond3.i = and i1 %19, %or.cond.i
  %.018.i = select i1 %or.cond3.i, i32 %11, i32 0
  %20 = add nuw nsw i32 %.018.i, 8
  %.not31 = icmp eq i32 %14, 0
  br i1 %.not31, label %._crit_edge, label %.lr.ph

.lr.ph:                                           ; preds = %18
  %21 = load ptr, ptr %1, align 8, !tbaa !44
  %22 = getelementptr inbounds nuw i8, ptr %10, i64 144
  br label %23

23:                                               ; preds = %.lr.ph, %45
  %.in = phi i32 [ %14, %.lr.ph ], [ %24, %45 ]
  %.02333 = phi ptr [ %21, %.lr.ph ], [ %48, %45 ]
  %.sroa.6.032 = phi i32 [ 0, %.lr.ph ], [ %32, %45 ]
  %24 = add nsw i32 %.in, -1
  %25 = load i32, ptr %22, align 8, !tbaa !33
  %.not25 = icmp eq i32 %25, 0
  %26 = load i32, ptr %12, align 4, !tbaa !40
  %27 = lshr i32 %.sroa.6.032, 3
  %28 = zext nneg i32 %27 to i64
  %29 = getelementptr inbounds nuw i8, ptr %6, i64 %28
  %30 = load i32, ptr %29, align 1, !tbaa !56
  %31 = add i32 %26, %.sroa.6.032
  %32 = tail call i32 @llvm.umin.i32(i32 %20, i32 %31)
  br i1 %.not25, label %39, label %33

33:                                               ; preds = %23
  %34 = and i32 %.sroa.6.032, 7
  %35 = lshr i32 %30, %34
  %36 = sub i32 32, %26
  %37 = lshr i32 -1, %36
  %38 = and i32 %35, %37
  br label %45

39:                                               ; preds = %23
  %40 = tail call i32 @llvm.bswap.i32(i32 %30)
  %41 = and i32 %.sroa.6.032, 7
  %42 = shl i32 %40, %41
  %43 = sub nsw i32 32, %26
  %44 = lshr i32 %42, %43
  br label %45

45:                                               ; preds = %39, %33
  %46 = phi i32 [ %44, %39 ], [ %38, %33 ]
  %47 = tail call fastcc signext i16 @g726_decode(ptr noundef nonnull %10, i32 noundef %46)
  %48 = getelementptr inbounds nuw i8, ptr %.02333, i64 2
  store i16 %47, ptr %.02333, align 2, !tbaa !53
  %.not = icmp eq i32 %24, 0
  br i1 %.not, label %._crit_edge, label %23, !llvm.loop !66

._crit_edge:                                      ; preds = %45, %18
  %.sroa.6.0.lcssa = phi i32 [ 0, %18 ], [ %32, %45 ]
  %49 = icmp sgt i32 %.018.i, %.sroa.6.0.lcssa
  br i1 %49, label %50, label %51

50:                                               ; preds = %._crit_edge
  tail call void (ptr, i32, ptr, ...) @av_log(ptr noundef %0, i32 noundef 16, ptr noundef nonnull @.str.21) #14
  br label %51

51:                                               ; preds = %50, %._crit_edge
  store i32 1, ptr %2, align 4, !tbaa !42
  br label %52

52:                                               ; preds = %4, %51
  %.0 = phi i32 [ %8, %51 ], [ %16, %4 ]
  ret i32 %.0
}